target datalayout = "e-m:e-p270:32:32-p271:32:32-p272:64:64-i64:64-i128:128-f80:128-n8:16:32:64-S128"
target triple = "x86_64-pc-linux-gnu"

%struct.tMPI_Thread = type { i64, i32 }
%struct.cpu_set_t = type { [16 x i64] }

; Function Attrs: mustprogress nounwind uwtable
define noundef i32 @_Z30tMPI_Thread_setaffinity_singleP11tMPI_Threadj(ptr noundef %0, i32 noundef %1) #0 {
  %3 = alloca ptr, align 8
  %4 = alloca i32, align 4
  %5 = alloca %struct.cpu_set_t, align 8
  %6 = alloca i64, align 8
  %7 = alloca i64, align 8
  store ptr %0, ptr %3, align 8
  store i32 %1, ptr %4, align 4
  br label %8

8:                                                ; preds = %2
  call void @llvm.memset.p0.i64(ptr align 8 %5, i8 0, i64 128, i1 false)
  br label %9

9:                                                ; preds = %8
  %10 = load i32, ptr %4, align 4
  %11 = zext i32 %10 to i64
  store i64 %11, ptr %6, align 8
  %12 = load i64, ptr %6, align 8
  %13 = udiv i64 %12, 8
  %14 = icmp ult i64 %13, 128
  br i1 %14, label %15, label %26

15:                                               ; preds = %9
  %16 = load i64, ptr %6, align 8
  %17 = urem i64 %16, 64
  %18 = shl i64 1, %17
  %19 = getelementptr inbounds %struct.cpu_set_t, ptr %5, i32 0, i32 0
  %20 = getelementptr inbounds [16 x i64], ptr %19, i64 0, i64 0
  %21 = load i64, ptr %6, align 8
  %22 = udiv i64 %21, 64
  %23 = getelementptr inbounds i64, ptr %20, i64 %22
  %24 = load i64, ptr %23, align 8
  %25 = or i64 %24, %18
  store i64 %25, ptr %23, align 8
  br label %27

26:                                               ; preds = %9
  br label %27

27:                                               ; preds = %26, %15
  %28 = phi i64 [ %25, %15 ], [ 0, %26 ]
  store i64 %28, ptr %7, align 8
  %29 = load ptr, ptr %3, align 8
  %30 = getelementptr inbounds %struct.tMPI_Thread, ptr %29, i32 0, i32 0
  %31 = load i64, ptr %30, align 8
  %32 = call i32 @pthread_setaffinity_np(i64 noundef %31, i64 noundef 128, ptr noundef %5) #8
  ret i32 %32
}