; Function Attrs: mustprogress nounwind uwtable
define noundef i32 @_Z30tMPI_Thread_setaffinity_singleP11tMPI_Threadj(ptr nocapture noundef readonly %0, i32 noundef %1) local_unnamed_addr #1 {
  %3 = alloca %struct.cpu_set_t, align 8
  call void @llvm.memset.p0.i64(ptr noundef nonnull align 8 dereferenceable(128) %3, i8 0, i64 128, i1 false)
  %4 = icmp ult i32 %1, 1024
  br i1 %4, label %5, label %13

5:                                                ; preds = %2
  %6 = zext nneg i32 %1 to i64
  %7 = and i64 %6, 63
  %8 = shl nuw i64 1, %7
  %9 = lshr i64 %6, 6
  %10 = getelementptr inbounds i64, ptr %3, i64 %9
  %11 = load i64, ptr %10, align 8
  %12 = or i64 %11, %8
  store i64 %12, ptr %10, align 8
  br label %13

13:                                               ; preds = %2, %5
  %14 = load i64, ptr %0, align 8
  %15 = call i32 @pthread_setaffinity_np(i64 noundef %14, i64 noundef 128, ptr noundef nonnull %3) #13
  ret i32 %15
}